target datalayout = "e-m:e-p270:32:32-p271:32:32-p272:64:64-i64:64-i128:128-f80:128-n8:16:32:64-S128"
target triple = "x86_64-pc-linux-gnu"

%struct._wmem_map_t = type { i32, i64, ptr, ptr, ptr, i32, i32, ptr, ptr }
%struct._wmem_map_item_t = type { ptr, ptr, ptr }

; Function Attrs: null_pointer_is_valid sspstrong uwtable
define void @wmem_map_foreach(ptr noundef %0, ptr noundef %1, ptr noundef %2) #0 {
  %4 = alloca ptr, align 8
  %5 = alloca ptr, align 8
  %6 = alloca ptr, align 8
  %7 = alloca ptr, align 8
  %8 = alloca i32, align 4
  %9 = alloca i32, align 4
  store ptr %0, ptr %4, align 8
  store ptr %1, ptr %5, align 8
  store ptr %2, ptr %6, align 8
  call void @llvm.lifetime.start.p0(i64 8, ptr %7) #8
  call void @llvm.lifetime.start.p0(i64 4, ptr %8) #8
  %10 = load ptr, ptr %4, align 8
  %11 = icmp eq ptr %10, null
  br i1 %11, label %17, label %12

12:                                               ; preds = %3
  %13 = load ptr, ptr %4, align 8
  %14 = getelementptr inbounds nuw %struct._wmem_map_t, ptr %13, i32 0, i32 2
  %15 = load ptr, ptr %14, align 8
  %16 = icmp eq ptr %15, null
  br i1 %16, label %17, label %18

17:                                               ; preds = %12, %3
  store i32 1, ptr %9, align 4
  br label %55

18:                                               ; preds = %12
  store i32 0, ptr %8, align 4
  br label %19

19:                                               ; preds = %51, %18
  %20 = load i32, ptr %8, align 4
  %21 = zext i32 %20 to i64
  %22 = load ptr, ptr %4, align 8
  %23 = getelementptr inbounds nuw %struct._wmem_map_t, ptr %22, i32 0, i32 1
  %24 = load i64, ptr %23, align 8
  %25 = shl i64 1, %24
  %26 = icmp ult i64 %21, %25
  br i1 %26, label %27, label %54

27:                                               ; preds = %19
  %28 = load ptr, ptr %4, align 8
  %29 = getelementptr inbounds nuw %struct._wmem_map_t, ptr %28, i32 0, i32 2
  %30 = load ptr, ptr %29, align 8
  %31 = load i32, ptr %8, align 4
  %32 = zext i32 %31 to i64
  %33 = getelementptr ptr, ptr %30, i64 %32
  %34 = load ptr, ptr %33, align 8
  store ptr %34, ptr %7, align 8
  br label %35

35:                                               ; preds = %38, %27
  %36 = load ptr, ptr %7, align 8
  %37 = icmp ne ptr %36, null
  br i1 %37, label %38, label %50

38:                                               ; preds = %35
  %39 = load ptr, ptr %5, align 8
  %40 = load ptr, ptr %7, align 8
  %41 = getelementptr inbounds nuw %struct._wmem_map_item_t, ptr %40, i32 0, i32 0
  %42 = load ptr, ptr %41, align 8
  %43 = load ptr, ptr %7, align 8
  %44 = getelementptr inbounds nuw %struct._wmem_map_item_t, ptr %43, i32 0, i32 1
  %45 = load ptr, ptr %44, align 8
  %46 = load ptr, ptr %6, align 8
  call void %39(ptr noundef %42, ptr noundef %45, ptr noundef %46)
  %47 = load ptr, ptr %7, align 8
  %48 = getelementptr inbounds nuw %struct._wmem_map_item_t, ptr %47, i32 0, i32 2
  %49 = load ptr, ptr %48, align 8
  store ptr %49, ptr %7, align 8
  br label %35, !llvm.loop !17

50:                                               ; preds = %35
  br label %51

51:                                               ; preds = %50
  %52 = load i32, ptr %8, align 4
  %53 = add i32 %52, 1
  store i32 %53, ptr %8, align 4
  br label %19, !llvm.loop !18

54:                                               ; preds = %19
  store i32 0, ptr %9, align 4
  br label %55

55:                                               ; preds = %54, %17
  call void @llvm.lifetime.end.p0(i64 4, ptr %8) #8
  call void @llvm.lifetime.end.p0(i64 8, ptr %7) #8
  %56 = load i32, ptr %9, align 4
  switch i32 %56, label %58 [
    i32 0, label %57
    i32 1, label %57
  ]

57:                                               ; preds = %55, %55
  ret void

58:                                               ; preds = %55
  unreachable
}