; Function Attrs: null_pointer_is_valid sspstrong uwtable
define void @wmem_map_foreach(ptr noundef readonly captures(address_is_null) %0, ptr noundef readonly captures(none) %1, ptr noundef %2) local_unnamed_addr #0 {
  %4 = icmp eq ptr %0, null
  br i1 %4, label %.loopexit, label %5

5:                                                ; preds = %3
  %6 = getelementptr inbounds nuw i8, ptr %0, i64 16
  %7 = load ptr, ptr %6, align 8
  %8 = icmp eq ptr %7, null
  br i1 %8, label %.loopexit, label %.preheader

.preheader:                                       ; preds = %5
  %9 = getelementptr inbounds nuw i8, ptr %0, i64 8
  br label %10

10:                                               ; preds = %.preheader, %._crit_edge
  %11 = phi i64 [ 0, %.preheader ], [ %19, %._crit_edge ]
  %.018 = phi i32 [ 0, %.preheader ], [ %18, %._crit_edge ]
  %12 = load ptr, ptr %6, align 8
  %13 = getelementptr ptr, ptr %12, i64 %11
  %.01215 = load ptr, ptr %13, align 8
  %.not16 = icmp eq ptr %.01215, null
  br i1 %.not16, label %._crit_edge, label %.lr.ph

.lr.ph:                                           ; preds = %10, %.lr.ph
  %.01217 = phi ptr [ %.012, %.lr.ph ], [ %.01215, %10 ]
  %14 = load ptr, ptr %.01217, align 8
  %15 = getelementptr inbounds nuw i8, ptr %.01217, i64 8
  %16 = load ptr, ptr %15, align 8
  tail call void %1(ptr noundef %14, ptr noundef %16, ptr noundef %2)
  %17 = getelementptr inbounds nuw i8, ptr %.01217, i64 16
  %.012 = load ptr, ptr %17, align 8
  %.not = icmp eq ptr %.012, null
  br i1 %.not, label %._crit_edge, label %.lr.ph, !llvm.loop !18

._crit_edge:                                      ; preds = %.lr.ph, %10
  %18 = add i32 %.018, 1
  %19 = zext i32 %18 to i64
  %20 = load i64, ptr %9, align 8
  %.highbits = lshr i64 %19, %20
  %21 = icmp eq i64 %.highbits, 0
  br i1 %21, label %10, label %.loopexit, !llvm.loop !19

.loopexit:                                        ; preds = %._crit_edge, %3, %5
  ret void
}